; ModuleID = 'source-C-CXX/42/1202.cpp'
source_filename = "source-C-CXX/42/1202.cpp"
target datalayout = "e-m:e-p270:32:32-p271:32:32-p272:64:64-i64:64-f80:128-n8:16:32:64-S128"
target triple = "x86_64-pc-linux-gnu"

%"class.std::ios_base::Init" = type { i8 }
%"class.std::basic_istream" = type { i32 (...)**, i64, %"class.std::basic_ios" }
%"class.std::basic_ios" = type { %"class.std::ios_base", %"class.std::basic_ostream"*, i8, i8, %"class.std::basic_streambuf"*, %"class.std::ctype"*, %"class.std::num_put"*, %"class.std::num_get"* }
%"class.std::ios_base" = type { i32 (...)**, i64, i64, i32, i32, i32, %"struct.std::ios_base::_Callback_list"*, %"struct.std::ios_base::_Words", [8 x %"struct.std::ios_base::_Words"], i32, %"struct.std::ios_base::_Words"*, %"class.std::locale" }
%"struct.std::ios_base::_Callback_list" = type { %"struct.std::ios_base::_Callback_list"*, void (i32, %"class.std::ios_base"*, i32)*, i32, i32 }
%"struct.std::ios_base::_Words" = type { i8*, i64 }
%"class.std::locale" = type { %"class.std::locale::_Impl"* }
%"class.std::locale::_Impl" = type { i32, %"class.std::locale::facet"**, i64, %"class.std::locale::facet"**, i8** }
%"class.std::locale::facet" = type <{ i32 (...)**, i32, [4 x i8] }>
%"class.std::basic_ostream" = type { i32 (...)**, %"class.std::basic_ios" }
%"class.std::basic_streambuf" = type { i32 (...)**, i8*, i8*, i8*, i8*, i8*, i8*, %"class.std::locale" }
%"class.std::ctype" = type <{ %"class.std::locale::facet.base", [4 x i8], %struct.__locale_struct*, i8, [7 x i8], i32*, i32*, i16*, i8, [256 x i8], [256 x i8], i8, [6 x i8] }>
%"class.std::locale::facet.base" = type <{ i32 (...)**, i32 }>
%struct.__locale_struct = type { [13 x %struct.__locale_data*], i16*, i32*, i32*, [13 x i8*] }
%struct.__locale_data = type opaque
%"class.std::num_put" = type { %"class.std::locale::facet.base", [4 x i8] }
%"class.std::num_get" = type { %"class.std::locale::facet.base", [4 x i8] }

@_ZStL8__ioinit = internal global %"class.std::ios_base::Init" zeroinitializer, align 1
@__dso_handle = external hidden global i8
@_ZSt3cin = external global %"class.std::basic_istream", align 8
@_ZSt4cout = external global %"class.std::basic_ostream", align 8
@llvm.global_ctors = appending global [1 x { i32, void ()*, i8* }] [{ i32, void ()*, i8* } { i32 65535, void ()* @_GLOBAL__sub_I_1202.cpp, i8* null }]

declare void @_ZNSt8ios_base4InitC1Ev(%"class.std::ios_base::Init"* nonnull align 1 dereferenceable(1)) unnamed_addr #0

; Function Attrs: nounwind
declare void @_ZNSt8ios_base4InitD1Ev(%"class.std::ios_base::Init"* nonnull align 1 dereferenceable(1)) unnamed_addr #1

; Function Attrs: nofree nounwind
declare i32 @__cxa_atexit(void (i8*)*, i8*, i8*) local_unnamed_addr #2

; Function Attrs: mustprogress norecurse sspstrong uwtable
define dso_local i32 @main() local_unnamed_addr #3 {
  %1 = alloca i8, align 1
  %2 = alloca i32, align 4
  %3 = bitcast i32* %2 to i8*
  call void @llvm.lifetime.start.p0i8(i64 4, i8* nonnull %3) #7
  %4 = call nonnull align 8 dereferenceable(16) %"class.std::basic_istream"* @_ZNSirsERi(%"class.std::basic_istream"* nonnull align 8 dereferenceable(16) @_ZSt3cin, i32* nonnull align 4 dereferenceable(4) %2)
  %5 = load i32, i32* %2, align 4, !tbaa !5
  %6 = icmp slt i32 %5, 6
  br i1 %6, label %114, label %7

7:                                                ; preds = %0, %108
  %8 = phi i32 [ %113, %108 ], [ 0, %0 ]
  %9 = phi i32 [ %109, %108 ], [ %5, %0 ]
  %10 = phi i32 [ %110, %108 ], [ 3, %0 ]
  %11 = mul nsw i32 %8, -2
  %12 = add i32 %11, -5
  %13 = icmp eq i32 %8, 0
  br i1 %13, label %30, label %14

14:                                               ; preds = %7
  %15 = shl nuw nsw i32 %8, 1
  br label %16

16:                                               ; preds = %16, %14
  %17 = phi i32 [ 0, %14 ], [ %26, %16 ]
  %18 = phi i32 [ 2, %14 ], [ %27, %16 ]
  %19 = phi i32 [ %15, %14 ], [ %28, %16 ]
  %20 = urem i32 %10, %18
  %21 = icmp eq i32 %20, 0
  %22 = or i32 %18, 1
  %23 = urem i32 %10, %22
  %24 = icmp eq i32 %23, 0
  %25 = select i1 %24, i1 true, i1 %21
  %26 = select i1 %25, i32 1, i32 %17
  %27 = add nuw nsw i32 %18, 2
  %28 = add i32 %19, -2
  %29 = icmp eq i32 %28, 0
  br i1 %29, label %30, label %16, !llvm.loop !9

30:                                               ; preds = %7, %16
  %31 = phi i32 [ undef, %7 ], [ %26, %16 ]
  %32 = phi i32 [ 0, %7 ], [ %26, %16 ]
  %33 = phi i32 [ 2, %7 ], [ %27, %16 ]
  %34 = urem i32 %10, %33
  %35 = icmp eq i32 %34, 0
  %36 = select i1 %35, i32 1, i32 %32
  %37 = icmp eq i32 %36, 0
  br i1 %37, label %38, label %108

38:                                               ; preds = %30
  %39 = sub nsw i32 %9, %10
  %40 = icmp sgt i32 %39, 2
  br i1 %40, label %41, label %74

41:                                               ; preds = %38
  %42 = add i32 %9, %12
  %43 = and i32 %42, 1
  %44 = sub i32 6, %11
  %45 = icmp eq i32 %9, %44
  br i1 %45, label %62, label %46

46:                                               ; preds = %41
  %47 = and i32 %42, -2
  br label %48

48:                                               ; preds = %48, %46
  %49 = phi i32 [ 0, %46 ], [ %58, %48 ]
  %50 = phi i32 [ 2, %46 ], [ %59, %48 ]
  %51 = phi i32 [ %47, %46 ], [ %60, %48 ]
  %52 = srem i32 %39, %50
  %53 = icmp eq i32 %52, 0
  %54 = or i32 %50, 1
  %55 = srem i32 %39, %54
  %56 = icmp eq i32 %55, 0
  %57 = select i1 %56, i1 true, i1 %53
  %58 = select i1 %57, i32 1, i32 %49
  %59 = add nuw nsw i32 %50, 2
  %60 = add i32 %51, -2
  %61 = icmp eq i32 %60, 0
  br i1 %61, label %62, label %48, !llvm.loop !11

62:                                               ; preds = %48, %41
  %63 = phi i32 [ undef, %41 ], [ %58, %48 ]
  %64 = phi i32 [ 0, %41 ], [ %58, %48 ]
  %65 = phi i32 [ 2, %41 ], [ %59, %48 ]
  %66 = icmp eq i32 %43, 0
  br i1 %66, label %71, label %67

67:                                               ; preds = %62
  %68 = srem i32 %39, %65
  %69 = icmp eq i32 %68, 0
  %70 = select i1 %69, i32 1, i32 %64
  br label %71

71:                                               ; preds = %62, %67
  %72 = phi i32 [ %63, %62 ], [ %70, %67 ]
  %73 = icmp eq i32 %72, 0
  br i1 %73, label %74, label %108

74:                                               ; preds = %38, %71
  %75 = call nonnull align 8 dereferenceable(8) %"class.std::basic_ostream"* @_ZNSolsEi(%"class.std::basic_ostream"* nonnull align 8 dereferenceable(8) @_ZSt4cout, i32 %10)
  call void @llvm.lifetime.start.p0i8(i64 1, i8* nonnull %1)
  store i8 32, i8* %1, align 1, !tbaa !12
  %76 = call nonnull align 8 dereferenceable(8) %"class.std::basic_ostream"* @_ZSt16__ostream_insertIcSt11char_traitsIcEERSt13basic_ostreamIT_T0_ES6_PKS3_l(%"class.std::basic_ostream"* nonnull align 8 dereferenceable(8) %75, i8* nonnull %1, i64 1)
  call void @llvm.lifetime.end.p0i8(i64 1, i8* nonnull %1)
  %77 = call nonnull align 8 dereferenceable(8) %"class.std::basic_ostream"* @_ZNSolsEi(%"class.std::basic_ostream"* nonnull align 8 dereferenceable(8) %76, i32 %39)
  %78 = bitcast %"class.std::basic_ostream"* %77 to i8**
  %79 = load i8*, i8** %78, align 8, !tbaa !13
  %80 = getelementptr i8, i8* %79, i64 -24
  %81 = bitcast i8* %80 to i64*
  %82 = load i64, i64* %81, align 8
  %83 = bitcast %"class.std::basic_ostream"* %77 to i8*
  %84 = add nsw i64 %82, 240
  %85 = getelementptr inbounds i8, i8* %83, i64 %84
  %86 = bitcast i8* %85 to %"class.std::ctype"**
  %87 = load %"class.std::ctype"*, %"class.std::ctype"** %86, align 8, !tbaa !15
  %88 = icmp eq %"class.std::ctype"* %87, null
  br i1 %88, label %89, label %90

89:                                               ; preds = %74
  call void @_ZSt16__throw_bad_castv() #8
  unreachable

90:                                               ; preds = %74
  %91 = getelementptr inbounds %"class.std::ctype", %"class.std::ctype"* %87, i64 0, i32 8
  %92 = load i8, i8* %91, align 8, !tbaa !19
  %93 = icmp eq i8 %92, 0
  br i1 %93, label %97, label %94

94:                                               ; preds = %90
  %95 = getelementptr inbounds %"class.std::ctype", %"class.std::ctype"* %87, i64 0, i32 9, i64 10
  %96 = load i8, i8* %95, align 1, !tbaa !12
  br label %103

97:                                               ; preds = %90
  call void @_ZNKSt5ctypeIcE13_M_widen_initEv(%"class.std::ctype"* nonnull align 8 dereferenceable(570) %87)
  %98 = bitcast %"class.std::ctype"* %87 to i8 (%"class.std::ctype"*, i8)***
  %99 = load i8 (%"class.std::ctype"*, i8)**, i8 (%"class.std::ctype"*, i8)*** %98, align 8, !tbaa !13
  %100 = getelementptr inbounds i8 (%"class.std::ctype"*, i8)*, i8 (%"class.std::ctype"*, i8)** %99, i64 6
  %101 = load i8 (%"class.std::ctype"*, i8)*, i8 (%"class.std::ctype"*, i8)** %100, align 8
  %102 = call signext i8 %101(%"class.std::ctype"* nonnull align 8 dereferenceable(570) %87, i8 signext 10)
  br label %103

103:                                              ; preds = %94, %97
  %104 = phi i8 [ %96, %94 ], [ %102, %97 ]
  %105 = call nonnull align 8 dereferenceable(8) %"class.std::basic_ostream"* @_ZNSo3putEc(%"class.std::basic_ostream"* nonnull align 8 dereferenceable(8) %77, i8 signext %104)
  %106 = call nonnull align 8 dereferenceable(8) %"class.std::basic_ostream"* @_ZNSo5flushEv(%"class.std::basic_ostream"* nonnull align 8 dereferenceable(8) %105)
  %107 = load i32, i32* %2, align 4, !tbaa !5
  br label %108

108:                                              ; preds = %30, %103, %71
  %109 = phi i32 [ %9, %30 ], [ %107, %103 ], [ %9, %71 ]
  %110 = add nuw nsw i32 %10, 2
  %111 = sdiv i32 %109, 2
  %112 = icmp sgt i32 %110, %111
  %113 = add i32 %8, 1
  br i1 %112, label %114, label %7, !llvm.loop !21

114:                                              ; preds = %108, %0
  call void @llvm.lifetime.end.p0i8(i64 4, i8* nonnull %3) #7
  ret i32 0
}

; Function Attrs: argmemonly mustprogress nofree nosync nounwind willreturn
declare void @llvm.lifetime.start.p0i8(i64 immarg, i8* nocapture) #4

declare nonnull align 8 dereferenceable(16) %"class.std::basic_istream"* @_ZNSirsERi(%"class.std::basic_istream"* nonnull align 8 dereferenceable(16), i32* nonnull align 4 dereferenceable(4)) local_unnamed_addr #0

declare nonnull align 8 dereferenceable(8) %"class.std::basic_ostream"* @_ZNSolsEi(%"class.std::basic_ostream"* nonnull align 8 dereferenceable(8), i32) local_unnamed_addr #0

; Function Attrs: argmemonly mustprogress nofree nosync nounwind willreturn
declare void @llvm.lifetime.end.p0i8(i64 immarg, i8* nocapture) #4

declare nonnull align 8 dereferenceable(8) %"class.std::basic_ostream"* @_ZSt16__ostream_insertIcSt11char_traitsIcEERSt13basic_ostreamIT_T0_ES6_PKS3_l(%"class.std::basic_ostream"* nonnull align 8 dereferenceable(8), i8*, i64) local_unnamed_addr #0

declare nonnull align 8 dereferenceable(8) %"class.std::basic_ostream"* @_ZNSo3putEc(%"class.std::basic_ostream"* nonnull align 8 dereferenceable(8), i8 signext) local_unnamed_addr #0

declare nonnull align 8 dereferenceable(8) %"class.std::basic_ostream"* @_ZNSo5flushEv(%"class.std::basic_ostream"* nonnull align 8 dereferenceable(8)) local_unnamed_addr #0

; Function Attrs: noreturn
declare void @_ZSt16__throw_bad_castv() local_unnamed_addr #5

declare void @_ZNKSt5ctypeIcE13_M_widen_initEv(%"class.std::ctype"* nonnull align 8 dereferenceable(570)) local_unnamed_addr #0

; Function Attrs: sspstrong uwtable
define internal void @_GLOBAL__sub_I_1202.cpp() #6 section ".text.startup" {
  tail call void @_ZNSt8ios_base4InitC1Ev(%"class.std::ios_base::Init"* nonnull align 1 dereferenceable(1) @_ZStL8__ioinit)
  %1 = tail call i32 @__cxa_atexit(void (i8*)* bitcast (void (%"class.std::ios_base::Init"*)* @_ZNSt8ios_base4InitD1Ev to void (i8*)*), i8* getelementptr inbounds (%"class.std::ios_base::Init", %"class.std::ios_base::Init"* @_ZStL8__ioinit, i64 0, i32 0), i8* nonnull @__dso_handle) #7
  ret void
}


!llvm.module.flags = !{!0, !1, !2, !3}
!llvm.ident = !{!4}

!0 = !{i32 1, !"wchar_size", i32 4}
!1 = !{i32 7, !"PIC Level", i32 2}
!2 = !{i32 7, !"PIE Level", i32 2}
!3 = !{i32 7, !"uwtable", i32 1}
!4 = !{!"clang version 13.0.0"}
!5 = !{!6, !6, i64 0}
!6 = !{!"int", !7, i64 0}
!7 = !{!"omnipotent char", !8, i64 0}
!8 = !{!"Simple C++ TBAA"}
!9 = distinct !{!9, !10}
!10 = !{!"llvm.loop.mustprogress"}
!11 = distinct !{!11, !10}
!12 = !{!7, !7, i64 0}
!13 = !{!14, !14, i64 0}
!14 = !{!"vtable pointer", !8, i64 0}
!15 = !{!16, !17, i64 240}
!16 = !{!"_ZTSSt9basic_iosIcSt11char_traitsIcEE", !17, i64 216, !7, i64 224, !18, i64 225, !17, i64 232, !17, i64 240, !17, i64 248, !17, i64 256}
!17 = !{!"any pointer", !7, i64 0}
!18 = !{!"bool", !7, i64 0}
!19 = !{!20, !7, i64 56}
!20 = !{!"_ZTSSt5ctypeIcE", !17, i64 16, !18, i64 24, !17, i64 32, !17, i64 40, !17, i64 48, !7, i64 56, !7, i64 57, !7, i64 313, !7, i64 569}
!21 = distinct !{!21, !10}
